target datalayout = "e-m:e-p270:32:32-p271:32:32-p272:64:64-i64:64-i128:128-f80:128-n8:16:32:64-S128"
target triple = "x86_64-pc-linux-gnu"

%struct.FunctionCallInfoBaseData = type { ptr, ptr, ptr, i32, i8, i16, [0 x %struct.NullableDatum] }
%struct.NullableDatum = type { i64, i8 }
%struct.TSVectorData = type { i32, i32, [0 x %struct.WordEntry] }
%struct.WordEntry = type { i32 }

; Function Attrs: inlinehint nounwind uwtable
define internal i64 @PointerGetDatum(ptr noundef %0) #3 {
  %2 = alloca ptr, align 8
  store ptr %0, ptr %2, align 8
  %3 = load ptr, ptr %2, align 8
  %4 = ptrtoint ptr %3 to i64
  ret i64 %4
}

; Function Attrs: inlinehint nounwind uwtable
define internal ptr @DatumGetPointer(i64 noundef %0) #3 {
  %2 = alloca i64, align 8
  store i64 %0, ptr %2, align 8
  %3 = load i64, ptr %2, align 8
  %4 = inttoptr i64 %3 to ptr
  ret ptr %4
}

; Function Attrs: inlinehint nounwind uwtable
define internal ptr @DatumGetTSVector(i64 noundef %0) #3 {
  %2 = alloca i64, align 8
  store i64 %0, ptr %2, align 8
  %3 = load i64, ptr %2, align 8
  %4 = call ptr @DatumGetPointer(i64 noundef %3)
  %5 = call ptr @pg_detoast_datum(ptr noundef %4)
  ret ptr %5
}

; Function Attrs: nounwind uwtable
define dso_local i64 @gin_extract_tsvector(ptr noundef %0) #0 {
  %2 = alloca ptr, align 8
  %3 = alloca ptr, align 8
  %4 = alloca ptr, align 8
  %5 = alloca ptr, align 8
  %6 = alloca i32, align 4
  %7 = alloca ptr, align 8
  %8 = alloca ptr, align 8
  store ptr %0, ptr %2, align 8
  call void @llvm.lifetime.start.p0(i64 8, ptr %3) #5
  %9 = load ptr, ptr %2, align 8
  %10 = getelementptr inbounds nuw %struct.FunctionCallInfoBaseData, ptr %9, i32 0, i32 6
  %11 = getelementptr inbounds [0 x %struct.NullableDatum], ptr %10, i64 0, i64 0
  %12 = getelementptr inbounds nuw %struct.NullableDatum, ptr %11, i32 0, i32 0
  %13 = load i64, ptr %12, align 8
  %14 = call ptr @DatumGetTSVector(i64 noundef %13)
  store ptr %14, ptr %3, align 8
  call void @llvm.lifetime.start.p0(i64 8, ptr %4) #5
  %15 = load ptr, ptr %2, align 8
  %16 = getelementptr inbounds nuw %struct.FunctionCallInfoBaseData, ptr %15, i32 0, i32 6
  %17 = getelementptr inbounds [0 x %struct.NullableDatum], ptr %16, i64 0, i64 1
  %18 = getelementptr inbounds nuw %struct.NullableDatum, ptr %17, i32 0, i32 0
  %19 = load i64, ptr %18, align 8
  %20 = call ptr @DatumGetPointer(i64 noundef %19)
  store ptr %20, ptr %4, align 8
  call void @llvm.lifetime.start.p0(i64 8, ptr %5) #5
  store ptr null, ptr %5, align 8
  %21 = load ptr, ptr %3, align 8
  %22 = getelementptr inbounds nuw %struct.TSVectorData, ptr %21, i32 0, i32 1
  %23 = load i32, ptr %22, align 4
  %24 = load ptr, ptr %4, align 8
  store i32 %23, ptr %24, align 4
  %25 = load ptr, ptr %3, align 8
  %26 = getelementptr inbounds nuw %struct.TSVectorData, ptr %25, i32 0, i32 1
  %27 = load i32, ptr %26, align 4
  %28 = icmp sgt i32 %27, 0
  br i1 %28, label %29, label %75

29:                                               ; preds = %1
  call void @llvm.lifetime.start.p0(i64 4, ptr %6) #5
  call void @llvm.lifetime.start.p0(i64 8, ptr %7) #5
  %30 = load ptr, ptr %3, align 8
  %31 = getelementptr inbounds nuw %struct.TSVectorData, ptr %30, i32 0, i32 2
  %32 = getelementptr inbounds [0 x %struct.WordEntry], ptr %31, i64 0, i64 0
  store ptr %32, ptr %7, align 8
  %33 = load ptr, ptr %3, align 8
  %34 = getelementptr inbounds nuw %struct.TSVectorData, ptr %33, i32 0, i32 1
  %35 = load i32, ptr %34, align 4
  %36 = sext i32 %35 to i64
  %37 = mul i64 8, %36
  %38 = call ptr @palloc(i64 noundef %37)
  store ptr %38, ptr %5, align 8
  store i32 0, ptr %6, align 4
  br label %39

39:                                               ; preds = %71, %29
  %40 = load i32, ptr %6, align 4
  %41 = load ptr, ptr %3, align 8
  %42 = getelementptr inbounds nuw %struct.TSVectorData, ptr %41, i32 0, i32 1
  %43 = load i32, ptr %42, align 4
  %44 = icmp slt i32 %40, %43
  br i1 %44, label %45, label %74

45:                                               ; preds = %39
  call void @llvm.lifetime.start.p0(i64 8, ptr %8) #5
  %46 = load ptr, ptr %3, align 8
  %47 = getelementptr inbounds nuw %struct.TSVectorData, ptr %46, i32 0, i32 2
  %48 = load ptr, ptr %3, align 8
  %49 = getelementptr inbounds nuw %struct.TSVectorData, ptr %48, i32 0, i32 1
  %50 = load i32, ptr %49, align 4
  %51 = sext i32 %50 to i64
  %52 = getelementptr inbounds [0 x %struct.WordEntry], ptr %47, i64 0, i64 %51
  %53 = load ptr, ptr %7, align 8
  %54 = load i32, ptr %53, align 4
  %55 = lshr i32 %54, 12
  %56 = sext i32 %55 to i64
  %57 = getelementptr inbounds i8, ptr %52, i64 %56
  %58 = load ptr, ptr %7, align 8
  %59 = load i32, ptr %58, align 4
  %60 = lshr i32 %59, 1
  %61 = and i32 %60, 2047
  %62 = call ptr @cstring_to_text_with_len(ptr noundef %57, i32 noundef %61)
  store ptr %62, ptr %8, align 8
  %63 = load ptr, ptr %8, align 8
  %64 = call i64 @PointerGetDatum(ptr noundef %63)
  %65 = load ptr, ptr %5, align 8
  %66 = load i32, ptr %6, align 4
  %67 = sext i32 %66 to i64
  %68 = getelementptr inbounds i64, ptr %65, i64 %67
  store i64 %64, ptr %68, align 8
  %69 = load ptr, ptr %7, align 8
  %70 = getelementptr inbounds nuw %struct.WordEntry, ptr %69, i32 1
  store ptr %70, ptr %7, align 8
  call void @llvm.lifetime.end.p0(i64 8, ptr %8) #5
  br label %71

71:                                               ; preds = %45
  %72 = load i32, ptr %6, align 4
  %73 = add i32 %72, 1
  store i32 %73, ptr %6, align 4
  br label %39, !llvm.loop !4

74:                                               ; preds = %39
  call void @llvm.lifetime.end.p0(i64 8, ptr %7) #5
  call void @llvm.lifetime.end.p0(i64 4, ptr %6) #5
  br label %75

75:                                               ; preds = %74, %1
  br label %76

76:                                               ; preds = %75
  %77 = load ptr, ptr %3, align 8
  %78 = load ptr, ptr %2, align 8
  %79 = getelementptr inbounds nuw %struct.FunctionCallInfoBaseData, ptr %78, i32 0, i32 6
  %80 = getelementptr inbounds [0 x %struct.NullableDatum], ptr %79, i64 0, i64 0
  %81 = getelementptr inbounds nuw %struct.NullableDatum, ptr %80, i32 0, i32 0
  %82 = load i64, ptr %81, align 8
  %83 = call ptr @DatumGetPointer(i64 noundef %82)
  %84 = icmp ne ptr %77, %83
  br i1 %84, label %85, label %87

85:                                               ; preds = %76
  %86 = load ptr, ptr %3, align 8
  call void @pfree(ptr noundef %86)
  br label %87

87:                                               ; preds = %85, %76
  br label %88

88:                                               ; preds = %87
  br label %89

89:                                               ; preds = %88
  %90 = load ptr, ptr %5, align 8
  %91 = call i64 @PointerGetDatum(ptr noundef %90)
  call void @llvm.lifetime.end.p0(i64 8, ptr %5) #5
  call void @llvm.lifetime.end.p0(i64 8, ptr %4) #5
  call void @llvm.lifetime.end.p0(i64 8, ptr %3) #5
  ret i64 %91
}