; Function Attrs: nounwind uwtable
define dso_local i64 @gin_extract_tsvector(ptr noundef readonly captures(none) %0) local_unnamed_addr #0 {
  %2 = getelementptr inbounds nuw i8, ptr %0, i64 32
  %3 = load i64, ptr %2, align 8
  %4 = inttoptr i64 %3 to ptr
  %5 = tail call ptr @pg_detoast_datum(ptr noundef %4) #6
  %6 = getelementptr inbounds nuw i8, ptr %0, i64 48
  %7 = load i64, ptr %6, align 8
  %8 = inttoptr i64 %7 to ptr
  %9 = getelementptr inbounds nuw i8, ptr %5, i64 4
  %10 = load i32, ptr %9, align 4
  store i32 %10, ptr %8, align 4
  %11 = icmp sgt i32 %10, 0
  br i1 %11, label %12, label %.loopexit

12:                                               ; preds = %1
  %13 = getelementptr inbounds nuw i8, ptr %5, i64 8
  %14 = zext nneg i32 %10 to i64
  %15 = shl nuw nsw i64 %14, 3
  %16 = tail call ptr @palloc(i64 noundef %15) #6
  %17 = load i32, ptr %9, align 4
  %18 = icmp sgt i32 %17, 0
  br i1 %18, label %.lr.ph, label %.loopexit

.lr.ph:                                           ; preds = %12, %.lr.ph
  %indvars.iv = phi i64 [ %indvars.iv.next, %.lr.ph ], [ 0, %12 ]
  %19 = phi i32 [ %32, %.lr.ph ], [ %17, %12 ]
  %.02127 = phi ptr [ %31, %.lr.ph ], [ %13, %12 ]
  %20 = sext i32 %19 to i64
  %21 = getelementptr inbounds [0 x %struct.WordEntry], ptr %13, i64 0, i64 %20
  %22 = load i32, ptr %.02127, align 4
  %23 = lshr i32 %22, 12
  %24 = zext nneg i32 %23 to i64
  %25 = getelementptr inbounds nuw i8, ptr %21, i64 %24
  %26 = lshr i32 %22, 1
  %27 = and i32 %26, 2047
  %28 = tail call ptr @cstring_to_text_with_len(ptr noundef nonnull %25, i32 noundef %27) #6
  %29 = ptrtoint ptr %28 to i64
  %30 = getelementptr inbounds nuw i64, ptr %16, i64 %indvars.iv
  store i64 %29, ptr %30, align 8
  %31 = getelementptr inbounds nuw i8, ptr %.02127, i64 4
  %indvars.iv.next = add nuw nsw i64 %indvars.iv, 1
  %32 = load i32, ptr %9, align 4
  %33 = sext i32 %32 to i64
  %34 = icmp slt i64 %indvars.iv.next, %33
  br i1 %34, label %.lr.ph, label %.loopexit, !llvm.loop !4

.loopexit:                                        ; preds = %.lr.ph, %12, %1
  %.0 = phi ptr [ null, %1 ], [ %16, %12 ], [ %16, %.lr.ph ]
  %35 = load i64, ptr %2, align 8
  %36 = inttoptr i64 %35 to ptr
  %.not = icmp eq ptr %5, %36
  br i1 %.not, label %38, label %37

37:                                               ; preds = %.loopexit
  tail call void @pfree(ptr noundef nonnull %5) #6
  br label %38

38:                                               ; preds = %37, %.loopexit
  %39 = ptrtoint ptr %.0 to i64
  ret i64 %39
}